target datalayout = "e-m:e-p270:32:32-p271:32:32-p272:64:64-i64:64-i128:128-f80:128-n8:16:32:64-S128"
target triple = "x86_64-pc-linux-gnu"

%struct.FT_Glyph_Class_ = type { i64, i32, ptr, ptr, ptr, ptr, ptr, ptr }
%struct.FT_Vector_ = type { i64, i64 }
%struct.FT_StrokerRec_ = type { i64, i64, %struct.FT_Vector_, i64, i8, i8, i64, %struct.FT_Vector_, i64, i8, i32, i32, i32, i64, i64, [2 x %struct.FT_StrokeBorderRec_], ptr }
%struct.FT_StrokeBorderRec_ = type { i32, i32, ptr, ptr, i8, i32, ptr, i8 }
%struct.FT_Outline_ = type { i16, i16, ptr, ptr, ptr, i32 }
%struct.FT_GlyphRec_ = type { ptr, ptr, i32, %struct.FT_Vector_ }
%struct.FT_OutlineGlyphRec_ = type { %struct.FT_GlyphRec_, %struct.FT_Outline_ }

@ft_outline_glyph_class = external constant %struct.FT_Glyph_Class_, align 8

; Function Attrs: nounwind uwtable
define internal i32 @ft_stroke_border_get_counts(ptr noundef %0, ptr noundef %1, ptr noundef %2) #0 {
  %4 = alloca ptr, align 8
  %5 = alloca ptr, align 8
  %6 = alloca ptr, align 8
  %7 = alloca i32, align 4
  %8 = alloca i32, align 4
  %9 = alloca i32, align 4
  %10 = alloca i32, align 4
  %11 = alloca ptr, align 8
  %12 = alloca ptr, align 8
  %13 = alloca i32, align 4
  store ptr %0, ptr %4, align 8
  store ptr %1, ptr %5, align 8
  store ptr %2, ptr %6, align 8
  store i32 0, ptr %7, align 4
  store i32 0, ptr %8, align 4
  store i32 0, ptr %9, align 4
  %14 = load ptr, ptr %4, align 8
  %15 = getelementptr inbounds %struct.FT_StrokeBorderRec_, ptr %14, i32 0, i32 0
  %16 = load i32, ptr %15, align 8
  store i32 %16, ptr %10, align 4
  %17 = load ptr, ptr %4, align 8
  %18 = getelementptr inbounds %struct.FT_StrokeBorderRec_, ptr %17, i32 0, i32 2
  %19 = load ptr, ptr %18, align 8
  store ptr %19, ptr %11, align 8
  %20 = load ptr, ptr %4, align 8
  %21 = getelementptr inbounds %struct.FT_StrokeBorderRec_, ptr %20, i32 0, i32 3
  %22 = load ptr, ptr %21, align 8
  store ptr %22, ptr %12, align 8
  store i32 0, ptr %13, align 4
  br label %23

23:                                               ; preds = %54, %3
  %24 = load i32, ptr %10, align 4
  %25 = icmp ugt i32 %24, 0
  br i1 %25, label %26, label %63

26:                                               ; preds = %23
  %27 = load ptr, ptr %12, align 8
  %28 = getelementptr inbounds i8, ptr %27, i64 0
  %29 = load i8, ptr %28, align 1
  %30 = zext i8 %29 to i32
  %31 = and i32 %30, 4
  %32 = icmp ne i32 %31, 0
  br i1 %32, label %33, label %38

33:                                               ; preds = %26
  %34 = load i32, ptr %13, align 4
  %35 = icmp ne i32 %34, 0
  br i1 %35, label %36, label %37

36:                                               ; preds = %33
  br label %76

37:                                               ; preds = %33
  store i32 1, ptr %13, align 4
  br label %43

38:                                               ; preds = %26
  %39 = load i32, ptr %13, align 4
  %40 = icmp eq i32 %39, 0
  br i1 %40, label %41, label %42

41:                                               ; preds = %38
  br label %76

42:                                               ; preds = %38
  br label %43

43:                                               ; preds = %42, %37
  %44 = load ptr, ptr %12, align 8
  %45 = getelementptr inbounds i8, ptr %44, i64 0
  %46 = load i8, ptr %45, align 1
  %47 = zext i8 %46 to i32
  %48 = and i32 %47, 8
  %49 = icmp ne i32 %48, 0
  br i1 %49, label %50, label %53

50:                                               ; preds = %43
  store i32 0, ptr %13, align 4
  %51 = load i32, ptr %9, align 4
  %52 = add i32 %51, 1
  store i32 %52, ptr %9, align 4
  br label %53

53:                                               ; preds = %50, %43
  br label %54

54:                                               ; preds = %53
  %55 = load i32, ptr %10, align 4
  %56 = add i32 %55, -1
  store i32 %56, ptr %10, align 4
  %57 = load i32, ptr %8, align 4
  %58 = add i32 %57, 1
  store i32 %58, ptr %8, align 4
  %59 = load ptr, ptr %11, align 8
  %60 = getelementptr inbounds %struct.FT_Vector_, ptr %59, i32 1
  store ptr %60, ptr %11, align 8
  %61 = load ptr, ptr %12, align 8
  %62 = getelementptr inbounds i8, ptr %61, i32 1
  store ptr %62, ptr %12, align 8
  br label %23, !llvm.loop !13

63:                                               ; preds = %23
  %64 = load i32, ptr %13, align 4
  %65 = icmp ne i32 %64, 0
  br i1 %65, label %66, label %67

66:                                               ; preds = %63
  br label %76

67:                                               ; preds = %63
  %68 = load ptr, ptr %4, align 8
  %69 = getelementptr inbounds %struct.FT_StrokeBorderRec_, ptr %68, i32 0, i32 7
  store i8 1, ptr %69, align 8
  br label %70

70:                                               ; preds = %76, %67
  %71 = load i32, ptr %8, align 4
  %72 = load ptr, ptr %5, align 8
  store i32 %71, ptr %72, align 4
  %73 = load i32, ptr %9, align 4
  %74 = load ptr, ptr %6, align 8
  store i32 %73, ptr %74, align 4
  %75 = load i32, ptr %7, align 4
  ret i32 %75

76:                                               ; preds = %66, %41, %36
  store i32 0, ptr %8, align 4
  store i32 0, ptr %9, align 4
  br label %70
}

; Function Attrs: nounwind uwtable
define i32 @FT_Stroker_GetBorderCounts(ptr noundef %0, i32 noundef %1, ptr noundef %2, ptr noundef %3) #0 {
  %5 = alloca ptr, align 8
  %6 = alloca i32, align 4
  %7 = alloca ptr, align 8
  %8 = alloca ptr, align 8
  %9 = alloca i32, align 4
  %10 = alloca i32, align 4
  %11 = alloca i32, align 4
  store ptr %0, ptr %5, align 8
  store i32 %1, ptr %6, align 4
  store ptr %2, ptr %7, align 8
  store ptr %3, ptr %8, align 8
  store i32 0, ptr %9, align 4
  store i32 0, ptr %10, align 4
  %12 = load ptr, ptr %5, align 8
  %13 = icmp ne ptr %12, null
  br i1 %13, label %14, label %17

14:                                               ; preds = %4
  %15 = load i32, ptr %6, align 4
  %16 = icmp ugt i32 %15, 1
  br i1 %16, label %17, label %18

17:                                               ; preds = %14, %4
  store i32 6, ptr %11, align 4
  br label %26

18:                                               ; preds = %14
  %19 = load ptr, ptr %5, align 8
  %20 = getelementptr inbounds %struct.FT_StrokerRec_, ptr %19, i32 0, i32 15
  %21 = getelementptr inbounds [2 x %struct.FT_StrokeBorderRec_], ptr %20, i64 0, i64 0
  %22 = load i32, ptr %6, align 4
  %23 = zext i32 %22 to i64
  %24 = getelementptr inbounds %struct.FT_StrokeBorderRec_, ptr %21, i64 %23
  %25 = call i32 @ft_stroke_border_get_counts(ptr noundef %24, ptr noundef %9, ptr noundef %10)
  store i32 %25, ptr %11, align 4
  br label %26

26:                                               ; preds = %18, %17
  %27 = load ptr, ptr %7, align 8
  %28 = icmp ne ptr %27, null
  br i1 %28, label %29, label %32

29:                                               ; preds = %26
  %30 = load i32, ptr %9, align 4
  %31 = load ptr, ptr %7, align 8
  store i32 %30, ptr %31, align 4
  br label %32

32:                                               ; preds = %29, %26
  %33 = load ptr, ptr %8, align 8
  %34 = icmp ne ptr %33, null
  br i1 %34, label %35, label %38

35:                                               ; preds = %32
  %36 = load i32, ptr %10, align 4
  %37 = load ptr, ptr %8, align 8
  store i32 %36, ptr %37, align 4
  br label %38

38:                                               ; preds = %35, %32
  %39 = load i32, ptr %11, align 4
  ret i32 %39
}

; Function Attrs: nounwind uwtable
define i32 @FT_Outline_GetOutsideBorder(ptr noundef %0) #0 {
  %2 = alloca ptr, align 8
  %3 = alloca i32, align 4
  store ptr %0, ptr %2, align 8
  %4 = load ptr, ptr %2, align 8
  %5 = call i32 @FT_Outline_Get_Orientation(ptr noundef %4)
  store i32 %5, ptr %3, align 4
  %6 = load i32, ptr %3, align 4
  %7 = icmp eq i32 %6, 0
  %8 = select i1 %7, i32 0, i32 1
  ret i32 %8
}

; Function Attrs: nounwind uwtable
define i32 @FT_Glyph_StrokeBorder(ptr noundef %0, ptr noundef %1, i8 noundef zeroext %2, i8 noundef zeroext %3) #0 {
  %5 = alloca ptr, align 8
  %6 = alloca ptr, align 8
  %7 = alloca i8, align 1
  %8 = alloca i8, align 1
  %9 = alloca i32, align 4
  %10 = alloca ptr, align 8
  %11 = alloca ptr, align 8
  %12 = alloca ptr, align 8
  %13 = alloca i32, align 4
  %14 = alloca ptr, align 8
  %15 = alloca i32, align 4
  %16 = alloca i32, align 4
  store ptr %0, ptr %5, align 8
  store ptr %1, ptr %6, align 8
  store i8 %2, ptr %7, align 1
  store i8 %3, ptr %8, align 1
  store i32 6, ptr %9, align 4
  store ptr null, ptr %10, align 8
  %17 = load ptr, ptr %5, align 8
  %18 = icmp ne ptr %17, null
  br i1 %18, label %20, label %19

19:                                               ; preds = %4
  br label %101

20:                                               ; preds = %4
  %21 = load ptr, ptr %5, align 8
  %22 = load ptr, ptr %21, align 8
  store ptr %22, ptr %10, align 8
  %23 = load ptr, ptr %10, align 8
  %24 = icmp ne ptr %23, null
  br i1 %24, label %25, label %30

25:                                               ; preds = %20
  %26 = load ptr, ptr %10, align 8
  %27 = getelementptr inbounds %struct.FT_GlyphRec_, ptr %26, i32 0, i32 1
  %28 = load ptr, ptr %27, align 8
  %29 = icmp ne ptr %28, @ft_outline_glyph_class
  br i1 %29, label %30, label %31

30:                                               ; preds = %25, %20
  br label %101

31:                                               ; preds = %25
  %32 = load ptr, ptr %10, align 8
  %33 = call i32 @FT_Glyph_Copy(ptr noundef %32, ptr noundef %11)
  store i32 %33, ptr %9, align 4
  %34 = load i32, ptr %9, align 4
  %35 = icmp ne i32 %34, 0
  br i1 %35, label %36, label %37

36:                                               ; preds = %31
  br label %101

37:                                               ; preds = %31
  %38 = load ptr, ptr %11, align 8
  store ptr %38, ptr %10, align 8
  %39 = load ptr, ptr %10, align 8
  store ptr %39, ptr %12, align 8
  %40 = load ptr, ptr %12, align 8
  %41 = getelementptr inbounds %struct.FT_OutlineGlyphRec_, ptr %40, i32 0, i32 1
  store ptr %41, ptr %14, align 8
  %42 = load ptr, ptr %14, align 8
  %43 = call i32 @FT_Outline_GetOutsideBorder(ptr noundef %42)
  store i32 %43, ptr %13, align 4
  %44 = load i8, ptr %7, align 1
  %45 = icmp ne i8 %44, 0
  br i1 %45, label %46, label %52

46:                                               ; preds = %37
  %47 = load i32, ptr %13, align 4
  %48 = icmp eq i32 %47, 0
  br i1 %48, label %49, label %50

49:                                               ; preds = %46
  store i32 1, ptr %13, align 4
  br label %51

50:                                               ; preds = %46
  store i32 0, ptr %13, align 4
  br label %51

51:                                               ; preds = %50, %49
  br label %52

52:                                               ; preds = %51, %37
  %53 = load ptr, ptr %6, align 8
  %54 = load ptr, ptr %14, align 8
  %55 = call i32 @FT_Stroker_ParseOutline(ptr noundef %53, ptr noundef %54, i8 noundef zeroext 0)
  store i32 %55, ptr %9, align 4
  %56 = load i32, ptr %9, align 4
  %57 = icmp ne i32 %56, 0
  br i1 %57, label %58, label %59

58:                                               ; preds = %52
  br label %94

59:                                               ; preds = %52
  %60 = load ptr, ptr %6, align 8
  %61 = load i32, ptr %13, align 4
  %62 = call i32 @FT_Stroker_GetBorderCounts(ptr noundef %60, i32 noundef %61, ptr noundef %15, ptr noundef %16)
  %63 = load ptr, ptr %10, align 8
  %64 = getelementptr inbounds %struct.FT_GlyphRec_, ptr %63, i32 0, i32 0
  %65 = load ptr, ptr %64, align 8
  %66 = load ptr, ptr %14, align 8
  %67 = call i32 @FT_Outline_Done(ptr noundef %65, ptr noundef %66)
  %68 = load ptr, ptr %10, align 8
  %69 = getelementptr inbounds %struct.FT_GlyphRec_, ptr %68, i32 0, i32 0
  %70 = load ptr, ptr %69, align 8
  %71 = load i32, ptr %15, align 4
  %72 = load i32, ptr %16, align 4
  %73 = load ptr, ptr %14, align 8
  %74 = call i32 @FT_Outline_New(ptr noundef %70, i32 noundef %71, i32 noundef %72, ptr noundef %73)
  store i32 %74, ptr %9, align 4
  %75 = load i32, ptr %9, align 4
  %76 = icmp ne i32 %75, 0
  br i1 %76, label %77, label %78

77:                                               ; preds = %59
  br label %94

78:                                               ; preds = %59
  %79 = load ptr, ptr %14, align 8
  %80 = getelementptr inbounds %struct.FT_Outline_, ptr %79, i32 0, i32 1
  store i16 0, ptr %80, align 2
  %81 = load ptr, ptr %14, align 8
  %82 = getelementptr inbounds %struct.FT_Outline_, ptr %81, i32 0, i32 0
  store i16 0, ptr %82, align 8
  %83 = load ptr, ptr %6, align 8
  %84 = load i32, ptr %13, align 4
  %85 = load ptr, ptr %14, align 8
  call void @FT_Stroker_ExportBorder(ptr noundef %83, i32 noundef %84, ptr noundef %85)
  %86 = load i8, ptr %8, align 1
  %87 = icmp ne i8 %86, 0
  br i1 %87, label %88, label %91

88:                                               ; preds = %78
  %89 = load ptr, ptr %5, align 8
  %90 = load ptr, ptr %89, align 8
  call void @FT_Done_Glyph(ptr noundef %90)
  br label %91

91:                                               ; preds = %88, %78
  %92 = load ptr, ptr %10, align 8
  %93 = load ptr, ptr %5, align 8
  store ptr %92, ptr %93, align 8
  br label %101

94:                                               ; preds = %77, %58
  %95 = load ptr, ptr %10, align 8
  call void @FT_Done_Glyph(ptr noundef %95)
  store ptr null, ptr %10, align 8
  %96 = load i8, ptr %8, align 1
  %97 = icmp ne i8 %96, 0
  br i1 %97, label %100, label %98

98:                                               ; preds = %94
  %99 = load ptr, ptr %5, align 8
  store ptr null, ptr %99, align 8
  br label %100

100:                                              ; preds = %98, %94
  br label %101

101:                                              ; preds = %100, %91, %36, %30, %19
  %102 = load i32, ptr %9, align 4
  ret i32 %102
}