; Function Attrs: nounwind uwtable
define i32 @FT_Glyph_StrokeBorder(ptr noundef %0, ptr noundef %1, i8 noundef zeroext %2, i8 noundef zeroext %3) local_unnamed_addr #0 {
  %5 = alloca ptr, align 8
  %.not = icmp eq ptr %0, null
  br i1 %.not, label %46, label %6

6:                                                ; preds = %4
  %7 = load ptr, ptr %0, align 8
  %.not40 = icmp eq ptr %7, null
  br i1 %.not40, label %46, label %8

8:                                                ; preds = %6
  %9 = getelementptr inbounds nuw i8, ptr %7, i64 8
  %10 = load ptr, ptr %9, align 8
  %.not41 = icmp eq ptr %10, @ft_outline_glyph_class
  br i1 %.not41, label %11, label %46

11:                                               ; preds = %8
  %12 = call i32 @FT_Glyph_Copy(ptr noundef nonnull %7, ptr noundef nonnull %5) #11
  %.not42 = icmp eq i32 %12, 0
  br i1 %.not42, label %13, label %46

13:                                               ; preds = %11
  %14 = load ptr, ptr %5, align 8
  %15 = getelementptr inbounds nuw i8, ptr %14, i64 40
  %16 = call i32 @FT_Outline_Get_Orientation(ptr noundef nonnull %15) #11
  %17 = icmp ne i32 %16, 0
  %.not43 = icmp ne i8 %2, 0
  %.033.v = xor i1 %.not43, %17
  %.033 = zext i1 %.033.v to i32
  %18 = call i32 @FT_Stroker_ParseOutline(ptr noundef %1, ptr noundef nonnull %15, i8 noundef zeroext 0)
  %.not44 = icmp eq i32 %18, 0
  br i1 %.not44, label %19, label %45

19:                                               ; preds = %13
  %20 = icmp eq ptr %1, null
  br i1 %20, label %FT_Stroker_GetBorderCounts.exit, label %21

21:                                               ; preds = %19
  %22 = getelementptr inbounds nuw i8, ptr %1, i64 112
  %23 = zext i1 %.033.v to i64
  %24 = getelementptr inbounds nuw %struct.FT_StrokeBorderRec_, ptr %22, i64 %23
  %25 = load i32, ptr %24, align 8
  %.not35.i.i = icmp eq i32 %25, 0
  br i1 %.not35.i.i, label %._crit_edge.thread.i.i, label %.lr.ph.preheader.i.i

.lr.ph.preheader.i.i:                             ; preds = %21
  %26 = getelementptr inbounds nuw i8, ptr %24, i64 16
  %27 = load ptr, ptr %26, align 8
  br label %.lr.ph.i.i

.lr.ph.i.i:                                       ; preds = %31, %.lr.ph.preheader.i.i
  %.040.i.i = phi i1 [ %.not30.not.i.i, %31 ], [ true, %.lr.ph.preheader.i.i ]
  %.01939.i.i = phi ptr [ %35, %31 ], [ %27, %.lr.ph.preheader.i.i ]
  %.02138.i.i = phi i32 [ %34, %31 ], [ %25, %.lr.ph.preheader.i.i ]
  %.02237.i.i = phi i32 [ %spec.select.i.i, %31 ], [ 0, %.lr.ph.preheader.i.i ]
  %28 = load i8, ptr %.01939.i.i, align 1
  %29 = and i8 %28, 4
  %.not28.i.i = icmp eq i8 %29, 0
  %30 = xor i1 %.040.i.i, %.not28.i.i
  br i1 %30, label %31, label %FT_Stroker_GetBorderCounts.exit

31:                                               ; preds = %.lr.ph.i.i
  %32 = and i8 %28, 8
  %.not30.not.i.i = icmp ne i8 %32, 0
  %.lobit.i.i = lshr exact i8 %32, 3
  %33 = zext nneg i8 %.lobit.i.i to i32
  %spec.select.i.i = add i32 %.02237.i.i, %33
  %34 = add i32 %.02138.i.i, -1
  %35 = getelementptr inbounds nuw i8, ptr %.01939.i.i, i64 1
  %.not.i.i = icmp eq i32 %34, 0
  br i1 %.not.i.i, label %._crit_edge.i.i, label %.lr.ph.i.i, !llvm.loop !14

._crit_edge.i.i:                                  ; preds = %31
  br i1 %.not30.not.i.i, label %._crit_edge.thread.i.i, label %FT_Stroker_GetBorderCounts.exit

._crit_edge.thread.i.i:                           ; preds = %._crit_edge.i.i, %21
  %.022.lcssa47.i.i = phi i32 [ %spec.select.i.i, %._crit_edge.i.i ], [ 0, %21 ]
  %36 = getelementptr inbounds nuw i8, ptr %24, i64 40
  store i8 1, ptr %36, align 8
  br label %FT_Stroker_GetBorderCounts.exit

FT_Stroker_GetBorderCounts.exit:                  ; preds = %.lr.ph.i.i, %19, %._crit_edge.i.i, %._crit_edge.thread.i.i
  %.016.i = phi i32 [ 0, %19 ], [ %25, %._crit_edge.thread.i.i ], [ 0, %._crit_edge.i.i ], [ 0, %.lr.ph.i.i ]
  %.015.i = phi i32 [ 0, %19 ], [ %.022.lcssa47.i.i, %._crit_edge.thread.i.i ], [ 0, %._crit_edge.i.i ], [ 0, %.lr.ph.i.i ]
  %37 = load ptr, ptr %14, align 8
  %38 = call i32 @FT_Outline_Done(ptr noundef %37, ptr noundef nonnull %15) #11
  %39 = load ptr, ptr %14, align 8
  %40 = call i32 @FT_Outline_New(ptr noundef %39, i32 noundef %.016.i, i32 noundef %.015.i, ptr noundef nonnull %15) #11
  %.not45 = icmp eq i32 %40, 0
  br i1 %.not45, label %41, label %45

41:                                               ; preds = %FT_Stroker_GetBorderCounts.exit
  %42 = getelementptr inbounds nuw i8, ptr %14, i64 42
  store i16 0, ptr %42, align 2
  store i16 0, ptr %15, align 8
  call void @FT_Stroker_ExportBorder(ptr noundef %1, i32 noundef %.033, ptr noundef nonnull %15)
  %.not46 = icmp eq i8 %3, 0
  br i1 %.not46, label %.sink.split, label %43

43:                                               ; preds = %41
  %44 = load ptr, ptr %0, align 8
  call void @FT_Done_Glyph(ptr noundef %44) #11
  br label %.sink.split

45:                                               ; preds = %FT_Stroker_GetBorderCounts.exit, %13
  %.1 = phi i32 [ %18, %13 ], [ %40, %FT_Stroker_GetBorderCounts.exit ]
  call void @FT_Done_Glyph(ptr noundef nonnull %14) #11
  %.not47 = icmp eq i8 %3, 0
  br i1 %.not47, label %.sink.split, label %46

.sink.split:                                      ; preds = %45, %41, %43
  %.sink = phi ptr [ %14, %43 ], [ %14, %41 ], [ null, %45 ]
  %.0.ph = phi i32 [ 0, %43 ], [ 0, %41 ], [ %.1, %45 ]
  store ptr %.sink, ptr %0, align 8
  br label %46

46:                                               ; preds = %.sink.split, %45, %11, %6, %8, %4
  %.0 = phi i32 [ 6, %8 ], [ %12, %11 ], [ %.1, %45 ], [ 6, %6 ], [ 6, %4 ], [ %.0.ph, %.sink.split ]
  ret i32 %.0
}